; ModuleID = '9/1560.c'
source_filename = "9/1560.c"
target datalayout = "e-m:e-p270:32:32-p271:32:32-p272:64:64-i64:64-f80:128-n8:16:32:64-S128"
target triple = "x86_64-pc-linux-gnu"

%struct.a = type { [100 x i8], i32 }

@.str = private unnamed_addr constant [3 x i8] c"%d\00", align 1
@.str.1 = private unnamed_addr constant [6 x i8] c"%s %d\00", align 1
@p = common dso_local global [100 x %struct.a] zeroinitializer, align 16
@.str.2 = private unnamed_addr constant [4 x i8] c"%s\0A\00", align 1

; Function Attrs: noinline nounwind uwtable
define dso_local i32 @main() #0 {
  %1 = alloca i32, align 4
  %2 = alloca i32, align 4
  %3 = alloca i32, align 4
  %4 = alloca i32, align 4
  %5 = alloca i32, align 4
  %6 = alloca i32, align 4
  %7 = alloca i32, align 4
  %8 = alloca [200 x i32], align 16
  %9 = alloca [100 x %struct.a], align 16
  %10 = alloca [100 x %struct.a], align 16
  %11 = alloca %struct.a, align 4
  store i32 0, i32* %1, align 4
  store i32 0, i32* %6, align 4
  store i32 0, i32* %7, align 4
  %12 = bitcast [200 x i32]* %8 to i8*
  call void @llvm.memset.p0i8.i64(i8* align 16 %12, i8 0, i64 800, i1 false)
  %13 = call i32 (i8*, ...) @__isoc99_scanf(i8* getelementptr inbounds ([3 x i8], [3 x i8]* @.str, i64 0, i64 0), i32* %2)
  store i32 0, i32* %3, align 4
  br label %14

14:                                               ; preds = %30, %0
  %15 = load i32, i32* %3, align 4
  %16 = load i32, i32* %2, align 4
  %17 = sub nsw i32 %16, 1
  %18 = icmp sle i32 %15, %17
  br i1 %18, label %19, label %33

19:                                               ; preds = %14
  %20 = load i32, i32* %3, align 4
  %21 = sext i32 %20 to i64
  %22 = getelementptr inbounds [100 x %struct.a], [100 x %struct.a]* @p, i64 0, i64 %21
  %23 = getelementptr inbounds %struct.a, %struct.a* %22, i32 0, i32 0
  %24 = getelementptr inbounds [100 x i8], [100 x i8]* %23, i64 0, i64 0
  %25 = load i32, i32* %3, align 4
  %26 = sext i32 %25 to i64
  %27 = getelementptr inbounds [100 x %struct.a], [100 x %struct.a]* @p, i64 0, i64 %26
  %28 = getelementptr inbounds %struct.a, %struct.a* %27, i32 0, i32 1
  %29 = call i32 (i8*, ...) @__isoc99_scanf(i8* getelementptr inbounds ([6 x i8], [6 x i8]* @.str.1, i64 0, i64 0), i8* %24, i32* %28)
  br label %30

30:                                               ; preds = %19
  %31 = load i32, i32* %3, align 4
  %32 = add nsw i32 %31, 1
  store i32 %32, i32* %3, align 4
  br label %14

33:                                               ; preds = %14
  store i32 0, i32* %3, align 4
  br label %34

34:                                               ; preds = %58, %33
  %35 = load i32, i32* %3, align 4
  %36 = load i32, i32* %2, align 4
  %37 = sub nsw i32 %36, 1
  %38 = icmp sle i32 %35, %37
  br i1 %38, label %39, label %61

39:                                               ; preds = %34
  %40 = load i32, i32* %3, align 4
  %41 = sext i32 %40 to i64
  %42 = getelementptr inbounds [100 x %struct.a], [100 x %struct.a]* @p, i64 0, i64 %41
  %43 = getelementptr inbounds %struct.a, %struct.a* %42, i32 0, i32 1
  %44 = load i32, i32* %43, align 4
  %45 = icmp sge i32 %44, 60
  br i1 %45, label %46, label %57

46:                                               ; preds = %39
  %47 = load i32, i32* %6, align 4
  %48 = sext i32 %47 to i64
  %49 = getelementptr inbounds [100 x %struct.a], [100 x %struct.a]* %9, i64 0, i64 %48
  %50 = load i32, i32* %3, align 4
  %51 = sext i32 %50 to i64
  %52 = getelementptr inbounds [100 x %struct.a], [100 x %struct.a]* @p, i64 0, i64 %51
  %53 = bitcast %struct.a* %49 to i8*
  %54 = bitcast %struct.a* %52 to i8*
  call void @llvm.memcpy.p0i8.p0i8.i64(i8* align 8 %53, i8* align 8 %54, i64 104, i1 false)
  %55 = load i32, i32* %6, align 4
  %56 = add nsw i32 %55, 1
  store i32 %56, i32* %6, align 4
  br label %57

57:                                               ; preds = %46, %39
  br label %58

58:                                               ; preds = %57
  %59 = load i32, i32* %3, align 4
  %60 = add nsw i32 %59, 1
  store i32 %60, i32* %3, align 4
  br label %34

61:                                               ; preds = %34
  store i32 0, i32* %3, align 4
  br label %62

62:                                               ; preds = %77, %61
  %63 = load i32, i32* %3, align 4
  %64 = load i32, i32* %6, align 4
  %65 = sub nsw i32 %64, 1
  %66 = icmp sle i32 %63, %65
  br i1 %66, label %67, label %80

67:                                               ; preds = %62
  %68 = load i32, i32* %3, align 4
  %69 = sext i32 %68 to i64
  %70 = getelementptr inbounds [100 x %struct.a], [100 x %struct.a]* %9, i64 0, i64 %69
  %71 = getelementptr inbounds %struct.a, %struct.a* %70, i32 0, i32 1
  %72 = load i32, i32* %71, align 4
  %73 = sext i32 %72 to i64
  %74 = getelementptr inbounds [200 x i32], [200 x i32]* %8, i64 0, i64 %73
  %75 = load i32, i32* %74, align 4
  %76 = add nsw i32 %75, 1
  store i32 %76, i32* %74, align 4
  br label %77

77:                                               ; preds = %67
  %78 = load i32, i32* %3, align 4
  %79 = add nsw i32 %78, 1
  store i32 %79, i32* %3, align 4
  br label %62

80:                                               ; preds = %62
  store i32 200, i32* %3, align 4
  br label %81

81:                                               ; preds = %121, %80
  %82 = load i32, i32* %3, align 4
  %83 = icmp sge i32 %82, 60
  br i1 %83, label %84, label %124

84:                                               ; preds = %81
  %85 = load i32, i32* %3, align 4
  %86 = sext i32 %85 to i64
  %87 = getelementptr inbounds [200 x i32], [200 x i32]* %8, i64 0, i64 %86
  %88 = load i32, i32* %87, align 4
  %89 = icmp sgt i32 %88, 0
  br i1 %89, label %90, label %120

90:                                               ; preds = %84
  store i32 0, i32* %4, align 4
  br label %91

91:                                               ; preds = %116, %90
  %92 = load i32, i32* %4, align 4
  %93 = load i32, i32* %6, align 4
  %94 = sub nsw i32 %93, 1
  %95 = icmp sle i32 %92, %94
  br i1 %95, label %96, label %119

96:                                               ; preds = %91
  %97 = load i32, i32* %4, align 4
  %98 = sext i32 %97 to i64
  %99 = getelementptr inbounds [100 x %struct.a], [100 x %struct.a]* %9, i64 0, i64 %98
  %100 = getelementptr inbounds %struct.a, %struct.a* %99, i32 0, i32 1
  %101 = load i32, i32* %100, align 4
  %102 = load i32, i32* %3, align 4
  %103 = icmp eq i32 %101, %102
  br i1 %103, label %104, label %115

104:                                              ; preds = %96
  %105 = load i32, i32* %7, align 4
  %106 = sext i32 %105 to i64
  %107 = getelementptr inbounds [100 x %struct.a], [100 x %struct.a]* %10, i64 0, i64 %106
  %108 = load i32, i32* %4, align 4
  %109 = sext i32 %108 to i64
  %110 = getelementptr inbounds [100 x %struct.a], [100 x %struct.a]* %9, i64 0, i64 %109
  %111 = bitcast %struct.a* %107 to i8*
  %112 = bitcast %struct.a* %110 to i8*
  call void @llvm.memcpy.p0i8.p0i8.i64(i8* align 8 %111, i8* align 8 %112, i64 104, i1 false)
  %113 = load i32, i32* %7, align 4
  %114 = add nsw i32 %113, 1
  store i32 %114, i32* %7, align 4
  br label %115

115:                                              ; preds = %104, %96
  br label %116

116:                                              ; preds = %115
  %117 = load i32, i32* %4, align 4
  %118 = add nsw i32 %117, 1
  store i32 %118, i32* %4, align 4
  br label %91

119:                                              ; preds = %91
  br label %120

120:                                              ; preds = %119, %84
  br label %121

121:                                              ; preds = %120
  %122 = load i32, i32* %3, align 4
  %123 = add nsw i32 %122, -1
  store i32 %123, i32* %3, align 4
  br label %81

124:                                              ; preds = %81
  store i32 0, i32* %3, align 4
  br label %125

125:                                              ; preds = %137, %124
  %126 = load i32, i32* %3, align 4
  %127 = load i32, i32* %6, align 4
  %128 = sub nsw i32 %127, 1
  %129 = icmp sle i32 %126, %128
  br i1 %129, label %130, label %140

130:                                              ; preds = %125
  %131 = load i32, i32* %3, align 4
  %132 = sext i32 %131 to i64
  %133 = getelementptr inbounds [100 x %struct.a], [100 x %struct.a]* %10, i64 0, i64 %132
  %134 = getelementptr inbounds %struct.a, %struct.a* %133, i32 0, i32 0
  %135 = getelementptr inbounds [100 x i8], [100 x i8]* %134, i64 0, i64 0
  %136 = call i32 (i8*, ...) @printf(i8* getelementptr inbounds ([4 x i8], [4 x i8]* @.str.2, i64 0, i64 0), i8* %135)
  br label %137

137:                                              ; preds = %130
  %138 = load i32, i32* %3, align 4
  %139 = add nsw i32 %138, 1
  store i32 %139, i32* %3, align 4
  br label %125

140:                                              ; preds = %125
  store i32 0, i32* %3, align 4
  br label %141

141:                                              ; preds = %161, %140
  %142 = load i32, i32* %3, align 4
  %143 = load i32, i32* %2, align 4
  %144 = sub nsw i32 %143, 1
  %145 = icmp sle i32 %142, %144
  br i1 %145, label %146, label %164

146:                                              ; preds = %141
  %147 = load i32, i32* %3, align 4
  %148 = sext i32 %147 to i64
  %149 = getelementptr inbounds [100 x %struct.a], [100 x %struct.a]* @p, i64 0, i64 %148
  %150 = getelementptr inbounds %struct.a, %struct.a* %149, i32 0, i32 1
  %151 = load i32, i32* %150, align 4
  %152 = icmp slt i32 %151, 60
  br i1 %152, label %153, label %160

153:                                              ; preds = %146
  %154 = load i32, i32* %3, align 4
  %155 = sext i32 %154 to i64
  %156 = getelementptr inbounds [100 x %struct.a], [100 x %struct.a]* @p, i64 0, i64 %155
  %157 = getelementptr inbounds %struct.a, %struct.a* %156, i32 0, i32 0
  %158 = getelementptr inbounds [100 x i8], [100 x i8]* %157, i64 0, i64 0
  %159 = call i32 (i8*, ...) @printf(i8* getelementptr inbounds ([4 x i8], [4 x i8]* @.str.2, i64 0, i64 0), i8* %158)
  br label %160

160:                                              ; preds = %153, %146
  br label %161

161:                                              ; preds = %160
  %162 = load i32, i32* %3, align 4
  %163 = add nsw i32 %162, 1
  store i32 %163, i32* %3, align 4
  br label %141

164:                                              ; preds = %141
  ret i32 0
}

; Function Attrs: argmemonly nounwind willreturn
declare void @llvm.memset.p0i8.i64(i8* nocapture writeonly, i8, i64, i1 immarg) #1

declare dso_local i32 @__isoc99_scanf(i8*, ...) #2

; Function Attrs: argmemonly nounwind willreturn
declare void @llvm.memcpy.p0i8.p0i8.i64(i8* noalias nocapture writeonly, i8* noalias nocapture readonly, i64, i1 immarg) #1

declare dso_local i32 @printf(i8*, ...) #2


!llvm.module.flags = !{!0}
!llvm.ident = !{!1}

!0 = !{i32 1, !"wchar_size", i32 4}
!1 = !{!"clang version 10.0.0-4ubuntu1 "}
